Certificate:
    Data:
        Version: 3 (0x2)
        Serial Number:
            d7:90:22:1a:c4:fd:30:20
        Signature Algorithm: sha256WithRSAEncryption
        Issuer: C=GB, ST=England, O=CyberPathway, OU=EnterprisePKI, CN=mk-intermediateCA/emailAddress=OKI@projects.lab
        Validity
            Not Before: Jan  1 00:00:00 2023 GMT
            Not After : Jan  2 00:00:00 2023 GMT
        Subject: C=GB, ST=England, O=CyberPathway, OU=EnterprisePKI, CN=server.cyberpathway.lab/emailAddress=PKI@projects.lab
        Subject Public Key Info:
            Public Key Algorithm: rsaEncryption
                Public-Key: (2048 bit)
                Modulus:
                    00:a6:5a:5c:d6:dc:2b:4a:0b:c8:2b:be:68:d0:1f:
                    8e:34:ad:60:89:db:e7:74:6c:f2:98:df:d4:23:25:
                    6e:de:0b:49:3f:bf:4b:6a:eb:aa:1d:7f:a9:76:ad:
                    51:d0:13:5e:2b:84:33:73:72:50:21:47:65:f2:84:
                    16:8e:93:04:92:a9:5e:2f:bd:f7:87:a2:3a:e0:51:
                    30:d3:2c:0b:b4:d2:69:a7:7b:af:5c:ad:e0:ee:b4:
                    8e:cf:3d:f4:d7:27:5f:41:d9:0c:55:c6:e0:f0:96:
                    70:54:b6:a4:58:90:21:ed:f7:c7:af:3c:6d:65:50:
                    e8:5b:82:94:3f:b2:36:d2:56:23:8b:6f:5c:51:fb:
                    a3:3f:48:ef:b9:4c:81:a3:b2:3f:c3:6b:46:1a:2a:
                    03:ab:a7:4d:23:b2:b5:ec:df:4a:be:03:ce:2e:de:
                    c0:3c:bb:d9:97:0a:0d:66:cd:b5:a3:47:0f:72:9f:
                    85:df:8a:fa:89:33:53:c4:9e:11:dc:de:df:4c:97:
                    fa:79:b8:ed:3c:31:59:b5:28:2c:d0:1f:dd:2b:8d:
                    82:4f:01:53:5f:52:e7:11:45:3d:8d:99:3f:f7:69:
                    38:f7:4e:4f:9d:54:63:6a:e3:13:b5:5c:0b:af:1c:
                    5e:f5:b5:3b:b3:6c:20:10:5c:6b:bc:45:68:07:3e:
                    5f:4b
                Exponent: 65537 (0x10001)
        X509v3 extensions:
            X509v3 Subject Alternative Name: 
                DNS:server.cyberpathway.lab, DNS:server
            X509v3 Subject Key Identifier: 
                F3:32:5D:88:9C:F0:FC:BD:F8:01:58:76:2B:6E:A0:AF:A4:6A:11:10
            X509v3 Authority Key Identifier: 
                F6:D5:23:D2:32:30:6C:9B:04:4A:C3:F2:81:18:C4:E5:34:DF:2B:12
    Signature Algorithm: sha256WithRSAEncryption
    Signature Value:
        94:46:73:da:58:2f:f8:74:83:87:66:d0:8e:81:65:b9:fb:1e:
        f8:18:6b:87:25:2c:52:e1:74:61:dd:b5:d7:1f:d6:98:cc:c3:
        b3:85:18:da:a3:2d:ed:80:22:10:41:53:07:78:64:b9:5b:ea:
        de:97:af:e9:a4:c8:6e:2f:0a:a4:ad:0d:9b:c5:49:f6:5c:36:
        cb:df:2b:8c:ac:9f:5f:93:8f:18:ce:4b:f0:8e:35:fe:70:af:
        74:cc:2f:56:51:7f:cc:ae:14:72:3b:f0:a9:f6:9d:22:e4:c6:
        83:3f:58:1b:df:b5:f3:09:9f:3b:3f:8a:cf:e4:30:2b:f5:07:
        6c:22:4c:94:14:d0:aa:d4:da:09:68:af:24:f1:a3:cd:14:b4:
        71:e2:6c:8f:0a:27:3f:cd:a3:86:69:13:74:83:5e:e0:e2:f7:
        84:37:d8:4b:2b:59:cb:b8:70:6f:3a:2d:49:fc:ff:a6:2a:92:
        d2:96:75:f7:1b:b1:49:17:e6:40:43:87:08:79:41:b6:d8:3c:
        a3:cd:e0:97:95:6c:57:5e:e9:06:50:7a:90:f2:3b:59:5b:ff:
        7a:96:5f:a3:9e:1f:6b:c9:a9:41:e0:07:96:66:8b:6e:ef:df:
        bf:7e:a4:74:e7:a5:7d:14:94:19:2d:df:ee:bc:2a:a1:8c:27:
        0c:ef:10:25:59:7e:2e:5e:78:7b:ce:b2:a3:78:42:0d:6e:7c:
        8c:99:fb:15:db:9b:5d:d4:c2:98:79:81:f8:d1:09:e4:74:43:
        55:3f:60:9d:8c:a2:68:97:3b:02:ed:39:55:54:5c:b9:86:e6:
        1a:71:51:2e:bf:a3:da:a6:4c:2b:12:6e:2c:b5:e0:67:4c:86:
        77:66:f8:81:8f:6a:63:a4:5d:ec:61:77:02:be:6f:29:3b:af:
        8b:aa:0a:ee:4b:e6:6d:84:34:77:dc:b6:f4:ec:89:69:a3:27:
        d9:46:88:bb:92:e7:e0:1b:3c:7b:16:44:c5:1b:5b:f1:4f:d4:
        7e:d3:b6:e5:78:2c:f9:cc:a9:d7:ee:08:a7:b7:d6:bb:2a:4a:
        29:45:d0:2e:54:8f:52:b1:8a:04:eb:42:de:76:07:a3:a7:1d:
        f7:8f:89:96:e5:5a:87:bf:11:5d:2d:1e:d1:b0:3f:50:08:27:
        1a:c3:27:e0:54:05:f7:86:69:a4:a7:43:95:4e:7c:e6:32:0e:
        3d:f0:d9:19:8e:34:b0:aa:9b:bb:c6:21:43:98:22:72:8a:02:
        28:10:6f:ce:2e:21:5f:9e:8b:f2:05:53:90:45:cf:21:43:d7:
        7b:03:25:0a:5e:19:53:09:e8:93:6a:94:32:5b:bd:3f:1a:ea:
        d9:57:7b:e5:24:d3:ca:56
-----BEGIN CERTIFICATE-----
MIIFDzCCAvegAwIBAgIJANeQIhrE/TAgMA0GCSqGSIb3DQEBCwUAMIGLMQswCQYD
VQQGEwJHQjEQMA4GA1UECAwHRW5nbGFuZDEVMBMGA1UECgwMQ3liZXJQYXRod2F5
MRYwFAYDVQQLDA1FbnRlcnByaXNlUEtJMRowGAYDVQQDDBFtay1pbnRlcm1lZGlh
dGVDQTEfMB0GCSqGSIb3DQEJARYQT0tJQHByb2plY3RzLmxhYjAeFw0yMzAxMDEw
MDAwMDBaFw0yMzAxMDIwMDAwMDBaMIGRMQswCQYDVQQGEwJHQjEQMA4GA1UECAwH
RW5nbGFuZDEVMBMGA1UECgwMQ3liZXJQYXRod2F5MRYwFAYDVQQLDA1FbnRlcnBy
aXNlUEtJMSAwHgYDVQQDDBdzZXJ2ZXIuY3liZXJwYXRod2F5LmxhYjEfMB0GCSqG
SIb3DQEJARYQUEtJQHByb2plY3RzLmxhYjCCASIwDQYJKoZIhvcNAQEBBQADggEP
ADCCAQoCggEBAKZaXNbcK0oLyCu+aNAfjjStYInb53Rs8pjf1CMlbt4LST+/S2rr
qh1/qXatUdATXiuEM3NyUCFHZfKEFo6TBJKpXi+994eiOuBRMNMsC7TSaad7r1yt
4O60js899NcnX0HZDFXG4PCWcFS2pFiQIe33x688bWVQ6FuClD+yNtJWI4tvXFH7
oz9I77lMgaOyP8NrRhoqA6unTSOytezfSr4Dzi7ewDy72ZcKDWbNtaNHD3Kfhd+K
+okzU8SeEdze30yX+nm47TwxWbUoLNAf3SuNgk8BU19S5xFFPY2ZP/dpOPdOT51U
Y2rjE7VcC68cXvW1O7NsIBBca7xFaAc+X0sCAwEAAaNuMGwwKgYDVR0RBCMwIYIX
c2VydmVyLmN5YmVycGF0aHdheS5sYWKCBnNlcnZlcjAdBgNVHQ4EFgQU8zJdiJzw
/L34AVh2K26gr6RqERAwHwYDVR0jBBgwFoAU9tUj0jIwbJsESsPygRjE5TTfKxIw
DQYJKoZIhvcNAQELBQADggIBAJRGc9pYL/h0g4dm0I6BZbn7HvgYa4clLFLhdGHd
tdcf1pjMw7OFGNqjLe2AIhBBUwd4ZLlb6t6Xr+mkyG4vCqStDZvFSfZcNsvfK4ys
n1+TjxjOS/CONf5wr3TML1ZRf8yuFHI78Kn2nSLkxoM/WBvftfMJnzs/is/kMCv1
B2wiTJQU0KrU2gloryTxo80UtHHibI8KJz/No4ZpE3SDXuDi94Q32EsrWcu4cG86
LUn8/6YqktKWdfcbsUkX5kBDhwh5QbbYPKPN4JeVbFde6QZQepDyO1lb/3qWX6Oe
H2vJqUHgB5Zmi27v379+pHTnpX0UlBkt3+68KqGMJwzvECVZfi5eeHvOsqN4Qg1u
fIyZ+xXbm13Uwph5gfjRCeR0Q1U/YJ2MomiXOwLtOVVUXLmG5hpxUS6/o9qmTCsS
biy14GdMhndm+IGPamOkXexhdwK+byk7r4uqCu5L5m2ENHfctvTsiWmjJ9lGiLuS
5+AbPHsWRMUbW/FP1H7TtuV4LPnMqdfuCKe31rsqSilF0C5Uj1KxigTrQt52B6On
HfePiZblWoe/EV0tHtGwP1AIJxrDJ+BUBfeGaaSnQ5VOfOYyDj3w2RmONLCqm7vG
IUOYInKKAigQb84uIV+ei/IFU5BFzyFD13sDJQpeGVMJ6JNqlDJbvT8a6tlXe+Uk
08pW
-----END CERTIFICATE-----
-----BEGIN CERTIFICATE-----
MIIGAzCCA+ugAwIBAgICEAAwDQYJKoZIhvcNAQELBQAwgZQxCzAJBgNVBAYTAkdC
MRAwDgYDVQQIDAdFbmdsYW5kMQ8wDQYDVQQHDAZMb25kb24xFTATBgNVBAoMDEN5
YmVyUGF0aHdheTEWMBQGA1UECwwNRW50ZXJwcmlzZVBLSTESMBAGA1UEAwwJbWst
cm9vdENBMR8wHQYJKoZIhvcNAQkBFhBQS0lAcHJvamVjdHMubGFiMB4XDTI2MDYy
NjE2MjI1NFoXDTMxMDYyNTE2MjI1NFowgYsxCzAJBgNVBAYTAkdCMRAwDgYDVQQI
DAdFbmdsYW5kMRUwEwYDVQQKDAxDeWJlclBhdGh3YXkxFjAUBgNVBAsMDUVudGVy
cHJpc2VQS0kxGjAYBgNVBAMMEW1rLWludGVybWVkaWF0ZUNBMR8wHQYJKoZIhvcN
AQkBFhBPS0lAcHJvamVjdHMubGFiMIICIjANBgkqhkiG9w0BAQEFAAOCAg8AMIIC
CgKCAgEApjnqflpG9++QMIqroq+Foj4gyeHmcZKErKZIutP3/rMC24Y4ilqqy99f
G3rArEA/4o2EbSB+Y2KcTOKSIeZXIkpNoSFZg1h373mTQefj+kio4cebWWZtednv
C8rUUHaIdpaqwHmHG5V6lYwpCBK+elFgnscl99mjVNOuEpjQvsRUA7aJZ24haxqO
lfozAbp505b0VaoY1U8rnazZCzCyMomcvCOtHCXeIB0IA+MlHbkaqUkd7b/2qBVy
lzRX8nZX6WSfZxal6E/XUGufpjtK8mI3e0PeiNA2/AckugztlWi23Z6AbiCr4wUJ
aQSXwguHGCxdTMgKuCDB6npLeKuf7Y86lliD2ktcYsTa7jp9+IMusYA9hyMqMsVt
YV7ArYPO/PX3p1nc+R3LBcQT5t2QrDp7DFf9J6oTWGlAww3L9wBNnSWZeVUPCbEg
3fhnoW6jNtXaWdGGw2/xsjsTVK6hgD3oMNegVAjX38zPKE/0UVOH+7JUL26eOTTy
muVN3f5e9uDQFTjuKJClN7V44LiMUfmFIvy4eNoDc1JKik7OG6QywoKT//WtVQhJ
/6027nbe1+kF/FVgofAoiyBkpTjZpNsvj8kHOu+Z9N4s4BxG3otYLW/CfL7npEjs
fI7SLIm2pU3RBQfoIN02iEsHGjsS7NcB+QQVihhENlJgs1p3Gc8CAwEAAaNmMGQw
HQYDVR0OBBYEFPbVI9IyMGybBErD8oEYxOU03ysSMB8GA1UdIwQYMBaAFBKyl5kC
KYE5vOlVCzOBGMhkqpJ+MBIGA1UdEwEB/wQIMAYBAf8CAQAwDgYDVR0PAQH/BAQD
AgGGMA0GCSqGSIb3DQEBCwUAA4ICAQBycJooKRiZMLEOLH2Fyf5TvOUCAZYDIdH4
N60LlsKmR1aUqduXpZIcpa05bvrP+ZMHylMPjfg4o3jmW5UQw9G3N33Pv12zf/CL
sn4JQ0+55ixH1okOxNgvqR/P3u9c68D3VKQKZsi8tmi73Z9yu3H1USdzYrgguKsi
+uUfvQhauijpYyj0k0j69VXattPQ7SwaPxj1E7kD3jjC+d++rzYOdOJVFBDxafZj
bQxn/H/SuReD1xK+gNw2Kj8q7uwMZ5eWkxAKs0MgLTrk/p0VuwZrYP1k9MvyT9Mg
rE51VTTbcTN2iAFCCBQrU7Bipqxt/IopkG+IZ7PJEVbCNinhqWQaJNU3+jNuI7/F
kBGuH8XFJ0PjU4w7vJgTMxVZWFqfrknHdXbuznukOXQuLZqn9PajakQt17qZZIO5
TuZhrKmZqmZzPQtTYs2ORZk23iP3fVmAYw78d+t1SS79stvczTudbYqcE67TMmvr
/XAQ/K51J1a3Di5w8OVwvpuvMJqM+8QJHRaamL/fXTGGLIgdbuwS5vhWcYleddUl
qrSUbUr39S51cwTfHDuB67S+HoPQ5QcmRBj81sku0PmgC5ISVOdCijhD50JRW78Y
FSSfRQGhIDLT566z1brt+N2Lwy3G95mahK0Zy4eIr6ZTsHM0gr/qVY3oRoxW0Fmw
Llhtxr5hBw==
-----END CERTIFICATE-----
